; Function Attrs: nounwind uwtable
define internal fastcc range(i32 0, 2) i32 @decode_to_dict(ptr noundef nonnull %0, ptr noundef %1, ptr noundef %2) unnamed_addr #0 {
  %4 = alloca i64, align 8
  %.not = icmp eq ptr %2, null
  br i1 %.not, label %12, label %5

5:                                                ; preds = %3
  %6 = load i8, ptr %2, align 1, !tbaa !16
  %.not18 = icmp eq i8 %6, 0
  br i1 %.not18, label %12, label %7

7:                                                ; preds = %5
  call void @llvm.lifetime.start.p0(i64 8, ptr nonnull %4) #13
  %8 = call ptr @Py_DecodeLocale(ptr noundef nonnull %2, ptr noundef nonnull %4) #13
  %.not19 = icmp eq ptr %8, null
  br i1 %.not19, label %.thread, label %9

.thread:                                          ; preds = %7
  call void @llvm.lifetime.end.p0(i64 8, ptr nonnull %4) #13
  br label %Py_DECREF.exit

9:                                                ; preds = %7
  %10 = load i64, ptr %4, align 8, !tbaa !26
  %11 = call ptr @PyUnicode_FromWideChar(ptr noundef nonnull %8, i64 noundef %10) #13
  call void @PyMem_RawFree(ptr noundef nonnull %8) #13
  %.not20.not = icmp eq ptr %11, null
  call void @llvm.lifetime.end.p0(i64 8, ptr nonnull %4) #13
  br i1 %.not20.not, label %Py_DECREF.exit, label %_Py_NewRef.exit

12:                                               ; preds = %5, %3
  %13 = load i32, ptr @_Py_NoneStruct, align 8, !tbaa !16
  %14 = icmp slt i32 %13, 0
  br i1 %14, label %_Py_NewRef.exit, label %15

15:                                               ; preds = %12
  %16 = add nuw i32 %13, 1
  store i32 %16, ptr @_Py_NoneStruct, align 8, !tbaa !16
  br label %_Py_NewRef.exit

_Py_NewRef.exit:                                  ; preds = %15, %12, %9
  %.115 = phi ptr [ %11, %9 ], [ @_Py_NoneStruct, %12 ], [ @_Py_NoneStruct, %15 ]
  %17 = call i32 @PyDict_SetItemString(ptr noundef nonnull %0, ptr noundef %1, ptr noundef nonnull %.115) #13
  %18 = icmp eq i32 %17, 0
  %19 = load i32, ptr %.115, align 8, !tbaa !16
  %.not.i = icmp sgt i32 %19, -1
  br i1 %.not.i, label %20, label %Py_DECREF.exit

20:                                               ; preds = %_Py_NewRef.exit
  %21 = add nsw i32 %19, -1
  store i32 %21, ptr %.115, align 8, !tbaa !16
  %22 = icmp eq i32 %21, 0
  br i1 %22, label %23, label %Py_DECREF.exit

23:                                               ; preds = %20
  call void @_Py_Dealloc(ptr noundef nonnull %.115) #13
  br label %Py_DECREF.exit

Py_DECREF.exit:                                   ; preds = %23, %20, %_Py_NewRef.exit, %.thread, %9
  %.1.shrunk = phi i1 [ false, %9 ], [ false, %.thread ], [ %18, %_Py_NewRef.exit ], [ %18, %20 ], [ %18, %23 ]
  %.1 = zext i1 %.1.shrunk to i32
  ret i32 %.1
}